; Function Attrs: mustprogress uwtable
define hidden noundef zeroext i1 @_ZNK4cvc58internal6theory11quantifiers9InstMatch10isCompleteEv(ptr nocapture noundef nonnull readonly align 8 dereferenceable(72) %this) local_unnamed_addr #3 align 2 personality ptr @__gxx_personality_v0 {
entry:
  %d_vals = getelementptr inbounds i8, ptr %this, i64 32
  %0 = load ptr, ptr %d_vals, align 8
  %_M_finish.i = getelementptr inbounds i8, ptr %this, i64 40
  %1 = load ptr, ptr %_M_finish.i, align 8
  %cmp.i.not6 = icmp eq ptr %0, %1
  br i1 %cmp.i.not6, label %return, label %for.body

for.body:                                         ; preds = %entry, %_ZNK4cvc58internal12NodeTemplateILb1EE6isNullEv.exit
  %__begin3.sroa.0.07 = phi ptr [ %incdec.ptr.i, %_ZNK4cvc58internal12NodeTemplateILb1EE6isNullEv.exit ], [ %0, %entry ]
  %2 = load ptr, ptr %__begin3.sroa.0.07, align 8
  %3 = load atomic i8, ptr @_ZGVZN4cvc58internal4expr9NodeValue4nullEvE6s_null acquire, align 8
  %guard.uninitialized.i.i = icmp eq i8 %3, 0
  br i1 %guard.uninitialized.i.i, label %init.check.i.i, label %_ZNK4cvc58internal12NodeTemplateILb1EE6isNullEv.exit, !prof !9

init.check.i.i:                                   ; preds = %for.body
  %4 = tail call i32 @__cxa_guard_acquire(ptr nonnull @_ZGVZN4cvc58internal4expr9NodeValue4nullEvE6s_null) #16
  %tobool.not.i.i = icmp eq i32 %4, 0
  br i1 %tobool.not.i.i, label %_ZNK4cvc58internal12NodeTemplateILb1EE6isNullEv.exit, label %init.i.i

init.i.i:                                         ; preds = %init.check.i.i
  %call.i.i = invoke noalias noundef nonnull dereferenceable(16) ptr @_Znwm(i64 noundef 16) #18
          to label %invoke.cont.i.i unwind label %lpad.i.i

invoke.cont.i.i:                                  ; preds = %init.i.i
  store i64 1152920405095219200, ptr %call.i.i, align 8
  %d_kind.i.i.i = getelementptr inbounds i8, ptr %call.i.i, i64 8
  store i16 0, ptr %d_kind.i.i.i, align 8
  %d_nchildren.i.i.i = getelementptr inbounds i8, ptr %call.i.i, i64 12
  store i32 0, ptr %d_nchildren.i.i.i, align 4
  store ptr %call.i.i, ptr @_ZZN4cvc58internal4expr9NodeValue4nullEvE6s_null, align 8
  tail call void @__cxa_guard_release(ptr nonnull @_ZGVZN4cvc58internal4expr9NodeValue4nullEvE6s_null) #16
  br label %_ZNK4cvc58internal12NodeTemplateILb1EE6isNullEv.exit

lpad.i.i:                                         ; preds = %init.i.i
  %5 = landingpad { ptr, i32 }
          cleanup
  tail call void @__cxa_guard_abort(ptr nonnull @_ZGVZN4cvc58internal4expr9NodeValue4nullEvE6s_null) #16
  resume { ptr, i32 } %5

_ZNK4cvc58internal12NodeTemplateILb1EE6isNullEv.exit: ; preds = %for.body, %init.check.i.i, %invoke.cont.i.i
  %6 = load ptr, ptr @_ZZN4cvc58internal4expr9NodeValue4nullEvE6s_null, align 8
  %cmp.i2.not = icmp ne ptr %2, %6
  %incdec.ptr.i = getelementptr inbounds i8, ptr %__begin3.sroa.0.07, i64 8
  %cmp.i.not = icmp ne ptr %incdec.ptr.i, %1
  %or.cond.not = select i1 %cmp.i2.not, i1 %cmp.i.not, i1 false
  br i1 %or.cond.not, label %for.body, label %return

return:                                           ; preds = %_ZNK4cvc58internal12NodeTemplateILb1EE6isNullEv.exit, %entry
  %cmp.i.not.lcssa = phi i1 [ true, %entry ], [ %cmp.i2.not, %_ZNK4cvc58internal12NodeTemplateILb1EE6isNullEv.exit ]
  ret i1 %cmp.i.not.lcssa
}